target datalayout = "e-m:e-p270:32:32-p271:32:32-p272:64:64-i64:64-i128:128-f80:128-n8:16:32:64-S128"
target triple = "x86_64-pc-linux-gnu"

%class.ReallocMark = type { i8 }
%class.ImplicitExceptionTable = type <{ i32, i32, ptr, %class.ReallocMark, [7 x i8] }>

; Function Attrs: mustprogress nounwind uwtable
define hidden void @_ZN22ImplicitExceptionTable8set_sizeEj(ptr noundef nonnull align 8 dereferenceable(17) %0, i32 noundef %1) #1 align 2 {
  %3 = alloca ptr, align 8
  %4 = alloca i32, align 4
  store ptr %0, ptr %3, align 8
  store i32 %1, ptr %4, align 4
  %5 = load ptr, ptr %3, align 8
  %6 = load i32, ptr %4, align 4
  %7 = getelementptr inbounds %class.ImplicitExceptionTable, ptr %5, i32 0, i32 0
  store i32 %6, ptr %7, align 8
  %8 = load i32, ptr %4, align 4
  %9 = mul i32 %8, 2
  %10 = zext i32 %9 to i64
  %11 = mul i64 %10, 4
  %12 = call noundef ptr @_Z23resource_allocate_bytesmN17AllocFailStrategy13AllocFailEnumE(i64 noundef %11, i32 noundef 0)
  %13 = getelementptr inbounds %class.ImplicitExceptionTable, ptr %5, i32 0, i32 2
  store ptr %12, ptr %13, align 8
  %14 = getelementptr inbounds %class.ImplicitExceptionTable, ptr %5, i32 0, i32 1
  store i32 0, ptr %14, align 4
  ret void
}