; Function Attrs: mustprogress nounwind uwtable
define hidden void @_ZN22ImplicitExceptionTable8set_sizeEj(ptr nocapture noundef nonnull writeonly align 8 dereferenceable(17) %0, i32 noundef %1) local_unnamed_addr #0 align 2 {
  store i32 %1, ptr %0, align 8
  %3 = shl i32 %1, 1
  %4 = zext i32 %3 to i64
  %5 = shl nuw nsw i64 %4, 2
  %6 = tail call noundef ptr @_Z23resource_allocate_bytesmN17AllocFailStrategy13AllocFailEnumE(i64 noundef %5, i32 noundef 0) #9
  %7 = getelementptr inbounds i8, ptr %0, i64 8
  store ptr %6, ptr %7, align 8
  %8 = getelementptr inbounds i8, ptr %0, i64 4
  store i32 0, ptr %8, align 4
  ret void
}